; Function Attrs: mustprogress uwtable
define noundef nonnull align 8 dereferenceable(64) ptr @_ZN32pxrInternal_v0_24__pxrReserved__11GfDualQuatdmLERKS0_(ptr noundef nonnull returned align 8 dereferenceable(64) %0, ptr noundef nonnull align 8 dereferenceable(64) %1) local_unnamed_addr #0 align 2 {
  %3 = alloca %"class.pxrInternal_v0_24__pxrReserved__::GfQuatd", align 8
  %4 = alloca %"class.pxrInternal_v0_24__pxrReserved__::GfQuatd", align 8
  %5 = alloca %"class.pxrInternal_v0_24__pxrReserved__::GfQuatd", align 8
  %6 = alloca %"class.pxrInternal_v0_24__pxrReserved__::GfQuatd", align 8
  call void @llvm.lifetime.start.p0(i64 32, ptr nonnull %5)
  call void @llvm.memcpy.p0.p0.i64(ptr noundef nonnull align 8 dereferenceable(32) %5, ptr noundef nonnull align 8 dereferenceable(32) %0, i64 32, i1 false), !noalias !35
  %7 = call noundef nonnull align 8 dereferenceable(32) ptr @_ZN32pxrInternal_v0_24__pxrReserved__7GfQuatdmLERKS0_(ptr noundef nonnull align 8 dereferenceable(32) %5, ptr noundef nonnull align 8 dereferenceable(32) %1), !noalias !35
  call void @llvm.memcpy.p0.p0.i64(ptr noundef nonnull align 8 dereferenceable(32) %6, ptr noundef nonnull align 8 dereferenceable(32) %7, i64 32, i1 false)
  call void @llvm.lifetime.end.p0(i64 32, ptr nonnull %5)
  %8 = getelementptr inbounds nuw i8, ptr %1, i64 32
  call void @llvm.lifetime.start.p0(i64 32, ptr nonnull %4)
  call void @llvm.memcpy.p0.p0.i64(ptr noundef nonnull align 8 dereferenceable(32) %4, ptr noundef nonnull align 8 dereferenceable(32) %0, i64 32, i1 false), !noalias !38
  %9 = call noundef nonnull align 8 dereferenceable(32) ptr @_ZN32pxrInternal_v0_24__pxrReserved__7GfQuatdmLERKS0_(ptr noundef nonnull align 8 dereferenceable(32) %4, ptr noundef nonnull align 8 dereferenceable(32) %8), !noalias !38
  %.sroa.04.0.copyload = load double, ptr %9, align 8
  %.sroa.25.0..sroa_idx = getelementptr inbounds nuw i8, ptr %9, i64 8
  %.sroa.25.0.copyload = load double, ptr %.sroa.25.0..sroa_idx, align 8
  %.sroa.36.0..sroa_idx = getelementptr inbounds nuw i8, ptr %9, i64 16
  %.sroa.36.0.copyload = load double, ptr %.sroa.36.0..sroa_idx, align 8
  %.sroa.47.0..sroa_idx = getelementptr inbounds nuw i8, ptr %9, i64 24
  %.sroa.47.0.copyload = load double, ptr %.sroa.47.0..sroa_idx, align 8
  call void @llvm.lifetime.end.p0(i64 32, ptr nonnull %4)
  %10 = getelementptr inbounds nuw i8, ptr %0, i64 32
  call void @llvm.lifetime.start.p0(i64 32, ptr nonnull %3)
  call void @llvm.memcpy.p0.p0.i64(ptr noundef nonnull align 8 dereferenceable(32) %3, ptr noundef nonnull align 8 dereferenceable(32) %10, i64 32, i1 false), !noalias !41
  %11 = call noundef nonnull align 8 dereferenceable(32) ptr @_ZN32pxrInternal_v0_24__pxrReserved__7GfQuatdmLERKS0_(ptr noundef nonnull align 8 dereferenceable(32) %3, ptr noundef nonnull align 8 dereferenceable(32) %1), !noalias !41
  %.sroa.0.0.copyload = load double, ptr %11, align 8
  %.sroa.2.0..sroa_idx = getelementptr inbounds nuw i8, ptr %11, i64 8
  %.sroa.2.0.copyload = load double, ptr %.sroa.2.0..sroa_idx, align 8
  %.sroa.3.0..sroa_idx = getelementptr inbounds nuw i8, ptr %11, i64 16
  %.sroa.3.0.copyload = load double, ptr %.sroa.3.0..sroa_idx, align 8
  %.sroa.4.0..sroa_idx = getelementptr inbounds nuw i8, ptr %11, i64 24
  %.sroa.4.0.copyload = load double, ptr %.sroa.4.0..sroa_idx, align 8
  call void @llvm.lifetime.end.p0(i64 32, ptr nonnull %3)
  %12 = fadd double %.sroa.47.0.copyload, %.sroa.4.0.copyload
  %13 = fadd double %.sroa.04.0.copyload, %.sroa.0.0.copyload
  %14 = fadd double %.sroa.25.0.copyload, %.sroa.2.0.copyload
  %15 = fadd double %.sroa.36.0.copyload, %.sroa.3.0.copyload
  call void @llvm.memcpy.p0.p0.i64(ptr noundef nonnull align 8 dereferenceable(64) %0, ptr noundef nonnull align 8 dereferenceable(32) %6, i64 32, i1 false)
  store double %13, ptr %10, align 8
  %.sroa.29.0..sroa_idx = getelementptr inbounds nuw i8, ptr %0, i64 40
  store double %14, ptr %.sroa.29.0..sroa_idx, align 8
  %.sroa.310.0..sroa_idx = getelementptr inbounds nuw i8, ptr %0, i64 48
  store double %15, ptr %.sroa.310.0..sroa_idx, align 8
  %.sroa.411.0..sroa_idx = getelementptr inbounds nuw i8, ptr %0, i64 56
  store double %12, ptr %.sroa.411.0..sroa_idx, align 8
  ret ptr %0
}